; Function Attrs: mustprogress nofree norecurse nosync nounwind willreturn memory(argmem: read) uwtable
define noundef zeroext i1 @_ZNK3zmq6pipe_t9check_hwmEv(ptr noundef nonnull readonly align 8 captures(none) dereferenceable(328) %0) local_unnamed_addr #16 align 2 {
  %2 = getelementptr inbounds nuw i8, ptr %0, i64 92
  %3 = load i32, ptr %2, align 4, !tbaa !102
  %4 = icmp slt i32 %3, 1
  %5 = getelementptr inbounds nuw i8, ptr %0, i64 120
  %6 = load i64, ptr %5, align 8
  %7 = getelementptr inbounds nuw i8, ptr %0, i64 128
  %8 = load i64, ptr %7, align 8
  %9 = sub i64 %6, %8
  %10 = zext nneg i32 %3 to i64
  %11 = icmp ult i64 %9, %10
  %12 = select i1 %4, i1 true, i1 %11
  ret i1 %12
}